; Function Attrs: mustprogress nounwind uwtable
define hidden void @_ZN4llvh14FoldingSetBase10InsertNodeEPNS0_4NodeEPv(ptr noundef nonnull align 8 dereferenceable(24) %this, ptr noundef %N, ptr noundef %InsertPos) local_unnamed_addr #0 align 2 {
entry:
  %TempID = alloca %"class.llvh::FoldingSetNodeID", align 8
  %NumNodes = getelementptr inbounds i8, ptr %this, i64 20
  %0 = load i32, ptr %NumNodes, align 4
  %add = add i32 %0, 1
  %NumBuckets.i = getelementptr inbounds i8, ptr %this, i64 16
  %1 = load i32, ptr %NumBuckets.i, align 8
  %mul.i = shl i32 %1, 1
  %cmp = icmp ugt i32 %add, %mul.i
  br i1 %cmp, label %if.then, label %if.end

if.then:                                          ; preds = %entry
  tail call void @_ZN4llvh14FoldingSetBase15GrowBucketCountEj(ptr noundef nonnull align 8 dereferenceable(24) %this, i32 noundef %mul.i)
  %add.ptr.i.i.i.i.i.i = getelementptr inbounds i8, ptr %TempID, i64 16
  store ptr %add.ptr.i.i.i.i.i.i, ptr %TempID, align 8
  %Size.i.i.i.i.i.i = getelementptr inbounds i8, ptr %TempID, i64 8
  store i32 0, ptr %Size.i.i.i.i.i.i, align 8
  %Capacity2.i.i.i.i.i.i = getelementptr inbounds i8, ptr %TempID, i64 12
  store i32 32, ptr %Capacity2.i.i.i.i.i.i, align 4
  %vtable = load ptr, ptr %this, align 8
  %vfn = getelementptr inbounds i8, ptr %vtable, i64 24
  %2 = load ptr, ptr %vfn, align 8
  %call2 = call noundef i32 %2(ptr noundef nonnull align 8 dereferenceable(24) %this, ptr noundef %N, ptr noundef nonnull align 8 dereferenceable(144) %TempID) #21
  %Buckets = getelementptr inbounds i8, ptr %this, i64 8
  %3 = load ptr, ptr %Buckets, align 8
  %4 = load i32, ptr %NumBuckets.i, align 8
  %sub.i = add i32 %4, -1
  %and.i = and i32 %sub.i, %call2
  %idx.ext.i = zext i32 %and.i to i64
  %add.ptr.i = getelementptr inbounds ptr, ptr %3, i64 %idx.ext.i
  %5 = load ptr, ptr %TempID, align 8
  %cmp.i.i.i.i = icmp eq ptr %5, %add.ptr.i.i.i.i.i.i
  br i1 %cmp.i.i.i.i, label %if.end, label %if.then.i.i.i

if.then.i.i.i:                                    ; preds = %if.then
  call void @free(ptr noundef %5) #21
  br label %if.end

if.end:                                           ; preds = %if.then.i.i.i, %if.then, %entry
  %InsertPos.addr.0 = phi ptr [ %InsertPos, %entry ], [ %add.ptr.i, %if.then ], [ %add.ptr.i, %if.then.i.i.i ]
  %6 = load i32, ptr %NumNodes, align 4
  %inc = add i32 %6, 1
  store i32 %inc, ptr %NumNodes, align 4
  %7 = load ptr, ptr %InsertPos.addr.0, align 8
  %tobool.not = icmp eq ptr %7, null
  %8 = ptrtoint ptr %InsertPos.addr.0 to i64
  %or = or i64 %8, 1
  %9 = inttoptr i64 %or to ptr
  %Next.0 = select i1 %tobool.not, ptr %9, ptr %7
  store ptr %Next.0, ptr %N, align 8
  store ptr %N, ptr %InsertPos.addr.0, align 8
  ret void
}